target datalayout = "e-m:e-p270:32:32-p271:32:32-p272:64:64-i64:64-i128:128-f80:128-n8:16:32:64-S128"
target triple = "x86_64-pc-linux-gnu"

%struct.nstime_t = type { i64, i32 }
%struct._th_t = type { i32, [8 x ptr] }
%struct.rlc_3gpp_tap_info = type { i8, i8, i8, i8, i16, i16, i16, i16, i8, %struct.nstime_t, i8, i8, i32, i8, i8, i32, i16, [512 x i32], i16 }

; Function Attrs: nounwind null_pointer_is_valid sspstrong uwtable
define hidden zeroext i1 @compare_rlc_headers(i8 noundef zeroext %0, i8 noundef zeroext %1, i16 noundef zeroext %2, i16 noundef zeroext %3, i16 noundef zeroext %4, i8 noundef zeroext %5, i8 noundef zeroext %6, i16 noundef zeroext %7, i16 noundef zeroext %8, i16 noundef zeroext %9, i8 noundef zeroext %10, i8 noundef zeroext %11, i1 noundef zeroext %12) #0 {
  %14 = alloca i1, align 1
  %15 = alloca i8, align 1
  %16 = alloca i8, align 1
  %17 = alloca i16, align 2
  %18 = alloca i16, align 2
  %19 = alloca i16, align 2
  %20 = alloca i8, align 1
  %21 = alloca i8, align 1
  %22 = alloca i16, align 2
  %23 = alloca i16, align 2
  %24 = alloca i16, align 2
  %25 = alloca i8, align 1
  %26 = alloca i8, align 1
  %27 = alloca i8, align 1
  store i8 %0, ptr %15, align 1
  store i8 %1, ptr %16, align 1
  store i16 %2, ptr %17, align 2
  store i16 %3, ptr %18, align 2
  store i16 %4, ptr %19, align 2
  store i8 %5, ptr %20, align 1
  store i8 %6, ptr %21, align 1
  store i16 %7, ptr %22, align 2
  store i16 %8, ptr %23, align 2
  store i16 %9, ptr %24, align 2
  store i8 %10, ptr %25, align 1
  store i8 %11, ptr %26, align 1
  %28 = zext i1 %12 to i8
  store i8 %28, ptr %27, align 1
  %29 = load i8, ptr %15, align 1
  %30 = zext i8 %29 to i32
  %31 = load i8, ptr %16, align 1
  %32 = zext i8 %31 to i32
  %33 = icmp ne i32 %30, %32
  br i1 %33, label %34, label %35

34:                                               ; preds = %13
  store i1 false, ptr %14, align 1
  br label %105

35:                                               ; preds = %13
  %36 = load i8, ptr %27, align 1, !range !6, !noundef !7
  %37 = trunc i8 %36 to i1
  br i1 %37, label %70, label %38

38:                                               ; preds = %35
  %39 = load i8, ptr %21, align 1
  %40 = zext i8 %39 to i32
  %41 = load i8, ptr %26, align 1
  %42 = zext i8 %41 to i32
  %43 = icmp eq i32 %40, %42
  br i1 %43, label %44, label %68

44:                                               ; preds = %38
  %45 = load i16, ptr %17, align 2
  %46 = zext i16 %45 to i32
  %47 = load i16, ptr %22, align 2
  %48 = zext i16 %47 to i32
  %49 = icmp eq i32 %46, %48
  br i1 %49, label %50, label %68

50:                                               ; preds = %44
  %51 = load i16, ptr %18, align 2
  %52 = zext i16 %51 to i32
  %53 = load i16, ptr %23, align 2
  %54 = zext i16 %53 to i32
  %55 = icmp eq i32 %52, %54
  br i1 %55, label %56, label %68

56:                                               ; preds = %50
  %57 = load i16, ptr %19, align 2
  %58 = zext i16 %57 to i32
  %59 = load i16, ptr %24, align 2
  %60 = zext i16 %59 to i32
  %61 = icmp eq i32 %58, %60
  br i1 %61, label %62, label %68

62:                                               ; preds = %56
  %63 = load i8, ptr %20, align 1
  %64 = zext i8 %63 to i32
  %65 = load i8, ptr %25, align 1
  %66 = zext i8 %65 to i32
  %67 = icmp eq i32 %64, %66
  br label %68

68:                                               ; preds = %62, %56, %50, %44, %38
  %69 = phi i1 [ false, %56 ], [ false, %50 ], [ false, %44 ], [ false, %38 ], [ %67, %62 ]
  store i1 %69, ptr %14, align 1
  br label %105

70:                                               ; preds = %35
  %71 = load i8, ptr %20, align 1
  %72 = zext i8 %71 to i32
  %73 = icmp eq i32 %72, 4
  br i1 %73, label %74, label %104

74:                                               ; preds = %70
  %75 = load i8, ptr %25, align 1
  %76 = zext i8 %75 to i32
  %77 = icmp eq i32 %76, 4
  br i1 %77, label %78, label %104

78:                                               ; preds = %74
  %79 = load i8, ptr %21, align 1
  %80 = zext i8 %79 to i32
  %81 = load i8, ptr %26, align 1
  %82 = zext i8 %81 to i32
  %83 = icmp ne i32 %80, %82
  br i1 %83, label %84, label %102

84:                                               ; preds = %78
  %85 = load i16, ptr %17, align 2
  %86 = zext i16 %85 to i32
  %87 = load i16, ptr %22, align 2
  %88 = zext i16 %87 to i32
  %89 = icmp eq i32 %86, %88
  br i1 %89, label %90, label %102

90:                                               ; preds = %84
  %91 = load i16, ptr %18, align 2
  %92 = zext i16 %91 to i32
  %93 = load i16, ptr %23, align 2
  %94 = zext i16 %93 to i32
  %95 = icmp eq i32 %92, %94
  br i1 %95, label %96, label %102

96:                                               ; preds = %90
  %97 = load i16, ptr %19, align 2
  %98 = zext i16 %97 to i32
  %99 = load i16, ptr %24, align 2
  %100 = zext i16 %99 to i32
  %101 = icmp eq i32 %98, %100
  br label %102

102:                                              ; preds = %96, %90, %84, %78
  %103 = phi i1 [ false, %90 ], [ false, %84 ], [ false, %78 ], [ %101, %96 ]
  store i1 %103, ptr %14, align 1
  br label %105

104:                                              ; preds = %74, %70
  store i1 false, ptr %14, align 1
  br label %105

105:                                              ; preds = %104, %102, %68, %34
  %106 = load i1, ptr %14, align 1
  ret i1 %106
}

; Function Attrs: null_pointer_is_valid sspstrong uwtable
define internal i32 @tap_lte_rlc_packet(ptr noundef %0, ptr noundef %1, ptr noundef %2, ptr noundef %3, i32 noundef %4) #1 {
  %6 = alloca ptr, align 8
  %7 = alloca ptr, align 8
  %8 = alloca ptr, align 8
  %9 = alloca ptr, align 8
  %10 = alloca i32, align 4
  %11 = alloca i32, align 4
  %12 = alloca i8, align 1
  %13 = alloca ptr, align 8
  %14 = alloca ptr, align 8
  %15 = alloca ptr, align 8
  %16 = alloca i32, align 4
  %17 = alloca i64, align 8
  %18 = alloca i64, align 8
  %19 = alloca ptr, align 8
  %20 = alloca ptr, align 8
  store ptr %0, ptr %6, align 8
  store ptr %1, ptr %7, align 8
  store ptr %2, ptr %8, align 8
  store ptr %3, ptr %9, align 8
  store i32 %4, ptr %10, align 4
  call void @llvm.lifetime.start.p0(i64 4, ptr %11) #10
  call void @llvm.lifetime.start.p0(i64 1, ptr %12) #10
  store i8 1, ptr %12, align 1
  call void @llvm.lifetime.start.p0(i64 8, ptr %13) #10
  %21 = load ptr, ptr %6, align 8
  store ptr %21, ptr %13, align 8
  call void @llvm.lifetime.start.p0(i64 8, ptr %14) #10
  %22 = load ptr, ptr %9, align 8
  store ptr %22, ptr %14, align 8
  store i32 0, ptr %11, align 4
  br label %23

23:                                               ; preds = %82, %5
  %24 = load i32, ptr %11, align 4
  %25 = load ptr, ptr %13, align 8
  %26 = getelementptr inbounds nuw %struct._th_t, ptr %25, i32 0, i32 0
  %27 = load i32, ptr %26, align 8
  %28 = icmp slt i32 %24, %27
  br i1 %28, label %29, label %85

29:                                               ; preds = %23
  call void @llvm.lifetime.start.p0(i64 8, ptr %15) #10
  %30 = load ptr, ptr %13, align 8
  %31 = getelementptr inbounds nuw %struct._th_t, ptr %30, i32 0, i32 1
  %32 = load i32, ptr %11, align 4
  %33 = sext i32 %32 to i64
  %34 = getelementptr [8 x ptr], ptr %31, i64 0, i64 %33
  %35 = load ptr, ptr %34, align 8
  store ptr %35, ptr %15, align 8
  %36 = load ptr, ptr %15, align 8
  %37 = getelementptr inbounds nuw %struct.rlc_3gpp_tap_info, ptr %36, i32 0, i32 0
  %38 = load i8, ptr %37, align 8
  %39 = load ptr, ptr %14, align 8
  %40 = getelementptr inbounds nuw %struct.rlc_3gpp_tap_info, ptr %39, i32 0, i32 0
  %41 = load i8, ptr %40, align 8
  %42 = load ptr, ptr %15, align 8
  %43 = getelementptr inbounds nuw %struct.rlc_3gpp_tap_info, ptr %42, i32 0, i32 4
  %44 = load i16, ptr %43, align 4
  %45 = load ptr, ptr %15, align 8
  %46 = getelementptr inbounds nuw %struct.rlc_3gpp_tap_info, ptr %45, i32 0, i32 5
  %47 = load i16, ptr %46, align 2
  %48 = load ptr, ptr %15, align 8
  %49 = getelementptr inbounds nuw %struct.rlc_3gpp_tap_info, ptr %48, i32 0, i32 6
  %50 = load i16, ptr %49, align 8
  %51 = load ptr, ptr %15, align 8
  %52 = getelementptr inbounds nuw %struct.rlc_3gpp_tap_info, ptr %51, i32 0, i32 1
  %53 = load i8, ptr %52, align 1
  %54 = load ptr, ptr %15, align 8
  %55 = getelementptr inbounds nuw %struct.rlc_3gpp_tap_info, ptr %54, i32 0, i32 2
  %56 = load i8, ptr %55, align 2
  %57 = load ptr, ptr %14, align 8
  %58 = getelementptr inbounds nuw %struct.rlc_3gpp_tap_info, ptr %57, i32 0, i32 4
  %59 = load i16, ptr %58, align 4
  %60 = load ptr, ptr %14, align 8
  %61 = getelementptr inbounds nuw %struct.rlc_3gpp_tap_info, ptr %60, i32 0, i32 5
  %62 = load i16, ptr %61, align 2
  %63 = load ptr, ptr %14, align 8
  %64 = getelementptr inbounds nuw %struct.rlc_3gpp_tap_info, ptr %63, i32 0, i32 6
  %65 = load i16, ptr %64, align 8
  %66 = load ptr, ptr %14, align 8
  %67 = getelementptr inbounds nuw %struct.rlc_3gpp_tap_info, ptr %66, i32 0, i32 1
  %68 = load i8, ptr %67, align 1
  %69 = load ptr, ptr %14, align 8
  %70 = getelementptr inbounds nuw %struct.rlc_3gpp_tap_info, ptr %69, i32 0, i32 2
  %71 = load i8, ptr %70, align 2
  %72 = load ptr, ptr %14, align 8
  %73 = getelementptr inbounds nuw %struct.rlc_3gpp_tap_info, ptr %72, i32 0, i32 14
  %74 = load i8, ptr %73, align 1
  %75 = icmp ne i8 %74, 0
  %76 = call zeroext i1 @compare_rlc_headers(i8 noundef zeroext %38, i8 noundef zeroext %41, i16 noundef zeroext %44, i16 noundef zeroext %47, i16 noundef zeroext %50, i8 noundef zeroext %53, i8 noundef zeroext %56, i16 noundef zeroext %59, i16 noundef zeroext %62, i16 noundef zeroext %65, i8 noundef zeroext %68, i8 noundef zeroext %71, i1 noundef zeroext %75)
  br i1 %76, label %77, label %78

77:                                               ; preds = %29
  store i8 0, ptr %12, align 1
  store i32 2, ptr %16, align 4
  br label %79

78:                                               ; preds = %29
  store i32 0, ptr %16, align 4
  br label %79

79:                                               ; preds = %78, %77
  call void @llvm.lifetime.end.p0(i64 8, ptr %15) #10
  %80 = load i32, ptr %16, align 4
  switch i32 %80, label %180 [
    i32 0, label %81
    i32 2, label %85
  ]

81:                                               ; preds = %79
  br label %82

82:                                               ; preds = %81
  %83 = load i32, ptr %11, align 4
  %84 = add i32 %83, 1
  store i32 %84, ptr %11, align 4
  br label %23, !llvm.loop !8

85:                                               ; preds = %79, %23
  %86 = load i8, ptr %12, align 1, !range !6, !noundef !7
  %87 = trunc i8 %86 to i1
  br i1 %87, label %88, label %179

88:                                               ; preds = %85
  %89 = load ptr, ptr %13, align 8
  %90 = getelementptr inbounds nuw %struct._th_t, ptr %89, i32 0, i32 0
  %91 = load i32, ptr %90, align 8
  %92 = icmp slt i32 %91, 8
  br i1 %92, label %93, label %179

93:                                               ; preds = %88
  call void @llvm.lifetime.start.p0(i64 8, ptr %17) #10
  store i64 1, ptr %17, align 8
  call void @llvm.lifetime.start.p0(i64 8, ptr %18) #10
  store i64 2104, ptr %18, align 8
  call void @llvm.lifetime.start.p0(i64 8, ptr %19) #10
  %94 = load i64, ptr %18, align 8
  %95 = icmp eq i64 %94, 1
  br i1 %95, label %96, label %99

96:                                               ; preds = %93
  %97 = load i64, ptr %17, align 8
  %98 = call noalias ptr @g_malloc(i64 noundef %97) #12
  store ptr %98, ptr %19, align 8
  br label %120

99:                                               ; preds = %93
  %100 = load i64, ptr %17, align 8
  %101 = call i1 @llvm.is.constant.i64(i64 %100)
  br i1 %101, label %102, label %115

102:                                              ; preds = %99
  %103 = load i64, ptr %18, align 8
  %104 = icmp eq i64 %103, 0
  br i1 %104, label %110, label %105

105:                                              ; preds = %102
  %106 = load i64, ptr %17, align 8
  %107 = load i64, ptr %18, align 8
  %108 = udiv i64 -1, %107
  %109 = icmp ule i64 %106, %108
  br i1 %109, label %110, label %115

110:                                              ; preds = %105, %102
  %111 = load i64, ptr %17, align 8
  %112 = load i64, ptr %18, align 8
  %113 = mul i64 %111, %112
  %114 = call noalias ptr @g_malloc(i64 noundef %113) #12
  store ptr %114, ptr %19, align 8
  br label %119

115:                                              ; preds = %105, %99
  %116 = load i64, ptr %17, align 8
  %117 = load i64, ptr %18, align 8
  %118 = call noalias ptr @g_malloc_n(i64 noundef %116, i64 noundef %117) #13
  store ptr %118, ptr %19, align 8
  br label %119

119:                                              ; preds = %115, %110
  br label %120

120:                                              ; preds = %119, %96
  %121 = load ptr, ptr %19, align 8
  store ptr %121, ptr %20, align 8
  call void @llvm.lifetime.end.p0(i64 8, ptr %19) #10
  call void @llvm.lifetime.end.p0(i64 8, ptr %18) #10
  call void @llvm.lifetime.end.p0(i64 8, ptr %17) #10
  %122 = load ptr, ptr %20, align 8
  %123 = load ptr, ptr %13, align 8
  %124 = getelementptr inbounds nuw %struct._th_t, ptr %123, i32 0, i32 1
  %125 = load ptr, ptr %13, align 8
  %126 = getelementptr inbounds nuw %struct._th_t, ptr %125, i32 0, i32 0
  %127 = load i32, ptr %126, align 8
  %128 = sext i32 %127 to i64
  %129 = getelementptr [8 x ptr], ptr %124, i64 0, i64 %128
  store ptr %122, ptr %129, align 8
  %130 = load ptr, ptr %13, align 8
  %131 = getelementptr inbounds nuw %struct._th_t, ptr %130, i32 0, i32 1
  %132 = load ptr, ptr %13, align 8
  %133 = getelementptr inbounds nuw %struct._th_t, ptr %132, i32 0, i32 0
  %134 = load i32, ptr %133, align 8
  %135 = sext i32 %134 to i64
  %136 = getelementptr [8 x ptr], ptr %131, i64 0, i64 %135
  %137 = load ptr, ptr %136, align 8
  %138 = load ptr, ptr %14, align 8
  call void @llvm.memcpy.p0.p0.i64(ptr align 8 %137, ptr align 8 %138, i64 2104, i1 false)
  %139 = load ptr, ptr %13, align 8
  %140 = getelementptr inbounds nuw %struct._th_t, ptr %139, i32 0, i32 1
  %141 = load ptr, ptr %13, align 8
  %142 = getelementptr inbounds nuw %struct._th_t, ptr %141, i32 0, i32 0
  %143 = load i32, ptr %142, align 8
  %144 = sext i32 %143 to i64
  %145 = getelementptr [8 x ptr], ptr %140, i64 0, i64 %144
  %146 = load ptr, ptr %145, align 8
  %147 = getelementptr inbounds nuw %struct.rlc_3gpp_tap_info, ptr %146, i32 0, i32 14
  %148 = load i8, ptr %147, align 1
  %149 = icmp ne i8 %148, 0
  br i1 %149, label %150, label %174

150:                                              ; preds = %120
  %151 = load ptr, ptr %13, align 8
  %152 = getelementptr inbounds nuw %struct._th_t, ptr %151, i32 0, i32 1
  %153 = load ptr, ptr %13, align 8
  %154 = getelementptr inbounds nuw %struct._th_t, ptr %153, i32 0, i32 0
  %155 = load i32, ptr %154, align 8
  %156 = sext i32 %155 to i64
  %157 = getelementptr [8 x ptr], ptr %152, i64 0, i64 %156
  %158 = load ptr, ptr %157, align 8
  %159 = getelementptr inbounds nuw %struct.rlc_3gpp_tap_info, ptr %158, i32 0, i32 2
  %160 = load i8, ptr %159, align 2
  %161 = icmp ne i8 %160, 0
  %162 = xor i1 %161, true
  %163 = zext i1 %162 to i32
  %164 = trunc i32 %163 to i8
  %165 = load ptr, ptr %13, align 8
  %166 = getelementptr inbounds nuw %struct._th_t, ptr %165, i32 0, i32 1
  %167 = load ptr, ptr %13, align 8
  %168 = getelementptr inbounds nuw %struct._th_t, ptr %167, i32 0, i32 0
  %169 = load i32, ptr %168, align 8
  %170 = sext i32 %169 to i64
  %171 = getelementptr [8 x ptr], ptr %166, i64 0, i64 %170
  %172 = load ptr, ptr %171, align 8
  %173 = getelementptr inbounds nuw %struct.rlc_3gpp_tap_info, ptr %172, i32 0, i32 2
  store i8 %164, ptr %173, align 2
  br label %174

174:                                              ; preds = %150, %120
  %175 = load ptr, ptr %13, align 8
  %176 = getelementptr inbounds nuw %struct._th_t, ptr %175, i32 0, i32 0
  %177 = load i32, ptr %176, align 8
  %178 = add i32 %177, 1
  store i32 %178, ptr %176, align 8
  br label %179

179:                                              ; preds = %174, %88, %85
  store i32 1, ptr %16, align 4
  call void @llvm.lifetime.end.p0(i64 8, ptr %14) #10
  call void @llvm.lifetime.end.p0(i64 8, ptr %13) #10
  call void @llvm.lifetime.end.p0(i64 1, ptr %12) #10
  call void @llvm.lifetime.end.p0(i64 4, ptr %11) #10
  ret i32 0

180:                                              ; preds = %79
  unreachable
}