; Function Attrs: null_pointer_is_valid sspstrong uwtable
define internal noundef i32 @tap_lte_rlc_packet(ptr noundef captures(none) %0, ptr readnone captures(none) %1, ptr readnone captures(none) %2, ptr noundef readonly captures(none) %3, i32 %4) #1 {
  %6 = load i32, ptr %0, align 8
  %7 = icmp sgt i32 %6, 0
  br i1 %7, label %.lr.ph, label %._crit_edge.thread

.lr.ph:                                           ; preds = %5
  %8 = getelementptr inbounds nuw i8, ptr %0, i64 8
  %9 = load i8, ptr %3, align 8
  %10 = getelementptr inbounds nuw i8, ptr %3, i64 4
  %11 = load i16, ptr %10, align 4
  %12 = getelementptr inbounds nuw i8, ptr %3, i64 6
  %13 = load i16, ptr %12, align 2
  %14 = getelementptr inbounds nuw i8, ptr %3, i64 8
  %15 = load i16, ptr %14, align 8
  %16 = getelementptr inbounds nuw i8, ptr %3, i64 1
  %17 = load i8, ptr %16, align 1
  %.fr60 = freeze i8 %17
  %18 = getelementptr inbounds nuw i8, ptr %3, i64 2
  %19 = load i8, ptr %18, align 2
  %20 = getelementptr inbounds nuw i8, ptr %3, i64 41
  %21 = icmp eq i8 %.fr60, 4
  %wide.trip.count67 = zext nneg i32 %6 to i64
  br i1 %21, label %.lr.ph.split, label %.lr.ph.split.us

.lr.ph.split.us:                                  ; preds = %.lr.ph, %compare_rlc_headers.exit.thread.us
  %indvars.iv = phi i64 [ %indvars.iv.next, %compare_rlc_headers.exit.thread.us ], [ 0, %.lr.ph ]
  %22 = getelementptr [8 x ptr], ptr %8, i64 0, i64 %indvars.iv
  %23 = load ptr, ptr %22, align 8
  %24 = load i8, ptr %23, align 8
  %25 = getelementptr inbounds nuw i8, ptr %23, i64 4
  %26 = load i16, ptr %25, align 4
  %27 = getelementptr inbounds nuw i8, ptr %23, i64 6
  %28 = load i16, ptr %27, align 2
  %29 = getelementptr inbounds nuw i8, ptr %23, i64 8
  %30 = load i16, ptr %29, align 8
  %31 = getelementptr inbounds nuw i8, ptr %23, i64 1
  %32 = load i8, ptr %31, align 1
  %33 = getelementptr inbounds nuw i8, ptr %23, i64 2
  %34 = load i8, ptr %33, align 2
  %.not.i.us = icmp eq i8 %24, %9
  br i1 %.not.i.us, label %35, label %compare_rlc_headers.exit.thread.us

35:                                               ; preds = %.lr.ph.split.us
  %36 = load i8, ptr %20, align 1
  %.not57.us = icmp eq i8 %36, 0
  br i1 %.not57.us, label %37, label %compare_rlc_headers.exit.thread.us

37:                                               ; preds = %35
  %38 = icmp eq i8 %34, %19
  %39 = icmp eq i16 %26, %11
  %or.cond26.i.us = and i1 %39, %38
  %40 = icmp eq i16 %28, %13
  %or.cond27.i.us = and i1 %40, %or.cond26.i.us
  %41 = icmp eq i16 %30, %15
  %or.cond28.i.us = and i1 %41, %or.cond27.i.us
  %42 = icmp eq i8 %32, %.fr60
  %spec.select.i.us = and i1 %42, %or.cond28.i.us
  br i1 %spec.select.i.us, label %.thread55, label %compare_rlc_headers.exit.thread.us

compare_rlc_headers.exit.thread.us:               ; preds = %35, %37, %.lr.ph.split.us
  %indvars.iv.next = add nuw nsw i64 %indvars.iv, 1
  %exitcond.not = icmp eq i64 %indvars.iv.next, %wide.trip.count67
  br i1 %exitcond.not, label %._crit_edge, label %.lr.ph.split.us, !llvm.loop !6

.lr.ph.split:                                     ; preds = %.lr.ph, %compare_rlc_headers.exit.thread
  %indvars.iv64 = phi i64 [ %indvars.iv.next65, %compare_rlc_headers.exit.thread ], [ 0, %.lr.ph ]
  %43 = getelementptr [8 x ptr], ptr %8, i64 0, i64 %indvars.iv64
  %44 = load ptr, ptr %43, align 8
  %45 = load i8, ptr %44, align 8
  %46 = getelementptr inbounds nuw i8, ptr %44, i64 4
  %47 = load i16, ptr %46, align 4
  %48 = getelementptr inbounds nuw i8, ptr %44, i64 6
  %49 = load i16, ptr %48, align 2
  %50 = getelementptr inbounds nuw i8, ptr %44, i64 8
  %51 = load i16, ptr %50, align 8
  %52 = getelementptr inbounds nuw i8, ptr %44, i64 1
  %53 = load i8, ptr %52, align 1
  %54 = getelementptr inbounds nuw i8, ptr %44, i64 2
  %55 = load i8, ptr %54, align 2
  %.not.i = icmp eq i8 %45, %9
  br i1 %.not.i, label %56, label %compare_rlc_headers.exit.thread

56:                                               ; preds = %.lr.ph.split
  %57 = load i8, ptr %20, align 1
  %.not57 = icmp eq i8 %57, 0
  br i1 %.not57, label %58, label %64

58:                                               ; preds = %56
  %59 = icmp eq i8 %55, %19
  %60 = icmp eq i16 %47, %11
  %or.cond26.i = and i1 %60, %59
  %61 = icmp eq i16 %49, %13
  %or.cond27.i = and i1 %61, %or.cond26.i
  %62 = icmp eq i16 %51, %15
  %or.cond28.i = and i1 %62, %or.cond27.i
  %63 = icmp eq i8 %53, 4
  %spec.select.i = and i1 %63, %or.cond28.i
  br i1 %spec.select.i, label %.thread55, label %compare_rlc_headers.exit.thread

64:                                               ; preds = %56
  %65 = icmp eq i8 %53, 4
  br i1 %65, label %compare_rlc_headers.exit, label %compare_rlc_headers.exit.thread

compare_rlc_headers.exit:                         ; preds = %64
  %.not25.i = icmp ne i8 %55, %19
  %66 = icmp eq i16 %47, %11
  %or.cond29.i = and i1 %66, %.not25.i
  %67 = icmp eq i16 %49, %13
  %or.cond30.i = and i1 %67, %or.cond29.i
  %68 = icmp eq i16 %51, %15
  %spec.select31.i = and i1 %68, %or.cond30.i
  br i1 %spec.select31.i, label %.thread55, label %compare_rlc_headers.exit.thread

compare_rlc_headers.exit.thread:                  ; preds = %64, %.lr.ph.split, %compare_rlc_headers.exit, %58
  %indvars.iv.next65 = add nuw nsw i64 %indvars.iv64, 1
  %exitcond68.not = icmp eq i64 %indvars.iv.next65, %wide.trip.count67
  br i1 %exitcond68.not, label %._crit_edge, label %.lr.ph.split, !llvm.loop !6

._crit_edge:                                      ; preds = %compare_rlc_headers.exit.thread.us, %compare_rlc_headers.exit.thread
  %69 = icmp slt i32 %6, 8
  br i1 %69, label %._crit_edge.thread, label %.thread55

._crit_edge.thread:                               ; preds = %5, %._crit_edge
  %70 = tail call noalias dereferenceable_or_null(2104) ptr @g_malloc(i64 noundef 2104) #11
  %71 = getelementptr inbounds nuw i8, ptr %0, i64 8
  %72 = load i32, ptr %0, align 8
  %73 = sext i32 %72 to i64
  %74 = getelementptr [8 x ptr], ptr %71, i64 0, i64 %73
  store ptr %70, ptr %74, align 8
  %75 = load i32, ptr %0, align 8
  %76 = sext i32 %75 to i64
  %77 = getelementptr [8 x ptr], ptr %71, i64 0, i64 %76
  %78 = load ptr, ptr %77, align 8
  tail call void @llvm.memcpy.p0.p0.i64(ptr noundef align 8 dereferenceable(2104) %78, ptr noundef align 8 dereferenceable(2104) %3, i64 2104, i1 false)
  %79 = load i32, ptr %0, align 8
  %80 = sext i32 %79 to i64
  %81 = getelementptr [8 x ptr], ptr %71, i64 0, i64 %80
  %82 = load ptr, ptr %81, align 8
  %83 = getelementptr inbounds nuw i8, ptr %82, i64 41
  %84 = load i8, ptr %83, align 1
  %.not = icmp eq i8 %84, 0
  br i1 %.not, label %89, label %85

85:                                               ; preds = %._crit_edge.thread
  %86 = getelementptr inbounds nuw i8, ptr %82, i64 2
  %87 = load i8, ptr %86, align 2
  %.not49 = icmp eq i8 %87, 0
  %88 = zext i1 %.not49 to i8
  store i8 %88, ptr %86, align 2
  %.pre = load i32, ptr %0, align 8
  br label %89

89:                                               ; preds = %85, %._crit_edge.thread
  %90 = phi i32 [ %.pre, %85 ], [ %79, %._crit_edge.thread ]
  %91 = add i32 %90, 1
  store i32 %91, ptr %0, align 8
  br label %.thread55

.thread55:                                        ; preds = %37, %compare_rlc_headers.exit, %58, %89, %._crit_edge
  ret i32 0
}